(i__main__
flight_detail
p0
(dp1
S'firstclass'
p2
I20
sS'eco_price'
p3
I2000
sS'businessclass'
p4
I50
sS'dest_name'
p5
S'FEG'
p6
sS'fir_price'
p7
I8000
sS'flight_num'
p8
S'EK234'
p9
sS'origin_name'
p10
S'DER'
p11
sS'time_depart'
p12
S'0300'
p13
sS'date'
p14
S'20-SEP-2014'
p15
sS'economyclass'
p16
I100
sS'bus_price'
p17
I5000
sS'time_arrive'
p18
S'1000'
p19
sb.