(i__main__
train
p0
(dp1
S'tseatSL'
p2
I18
sS'ttotalseats'
p3
I324
sS'tpriceFC'
p4
I100
sS't2A'
p5
I1
sS'tprice2S'
p6
I100
sS'tFC'
p7
I1
sS'tto'
p8
S'Agra'
p9
sS'tEC'
p10
I1
sS'tprice2A'
p11
I100
sS't2S'
p12
I10
sS'date1'
p13
I1026
sS'tSL'
p14
I1
sS'tseat2A'
p15
I18
sS'tseatEC'
p16
I18
sS'tpriceCC'
p17
I100
sS'tname'
p18
S'Local'
p19
sS'tseat2S'
p20
I180
sS'tseatCC'
p21
I18
sS'tprice1A'
p22
I100
sS'tprice3E'
p23
I100
sS't1A'
p24
I1
sS'tprice3A'
p25
I100
sS't3E'
p26
I1
sS't3A'
p27
I1
sS'tid'
p28
I101
sS'date'
p29
S'10/26/2014'
p30
sS'tfrom'
p31
S'Delhi'
p32
sS'tpriceEC'
p33
I100
sS'tCC'
p34
I1
sS'tseat1A'
p35
I18
sS'tseat3E'
p36
I18
sS'tpriceSL'
p37
I100
sS'tseat3A'
p38
I18
sS'tseatFC'
p39
I18
sb.(i__main__
train
p0
(dp1
S'tseatSL'
p2
I18
sS'ttotalseats'
p3
I324
sS'tpriceFC'
p4
I100
sS't2A'
p5
I1
sS'tprice2S'
p6
I100
sS'tFC'
p7
I1
sS'tto'
p8
S'Agra'
p9
sS'tEC'
p10
I1
sS'tprice2A'
p11
I100
sS't2S'
p12
I10
sS'date1'
p13
I1026
sS'tSL'
p14
I1
sS'tseat2A'
p15
I18
sS'tseatEC'
p16
I18
sS'tpriceCC'
p17
I100
sS'tname'
p18
S'Local'
p19
sS'tseat2S'
p20
I180
sS'tseatCC'
p21
I18
sS'tprice1A'
p22
I100
sS'tprice3E'
p23
I100
sS't1A'
p24
I1
sS'tprice3A'
p25
I100
sS't3E'
p26
I1
sS't3A'
p27
I1
sS'tid'
p28
I101
sS'date'
p29
S'10/26/2014'
p30
sS'tfrom'
p31
S'Delhi'
p32
sS'tpriceEC'
p33
I100
sS'tCC'
p34
I1
sS'tseat1A'
p35
I18
sS'tseat3E'
p36
I18
sS'tpriceSL'
p37
I100
sS'tseat3A'
p38
I18
sS'tseatFC'
p39
I18
sb.(i__main__
train
p0
(dp1
S'tseatSL'
p2
I18
sS'ttotalseats'
p3
I322
sS'tpriceFC'
p4
I100
sS't2A'
p5
I1
sS'tprice2S'
p6
I100
sS'tFC'
p7
I1
sS'tto'
p8
S'Agra'
p9
sS'tEC'
p10
I1
sS'tprice2A'
p11
I100
sS't2S'
p12
I10
sS'date1'
p13
I1026
sS'tSL'
p14
I1
sS'tseat2A'
p15
I18
sS'tseatEC'
p16
I18
sS'tpriceCC'
p17
I100
sS'tname'
p18
S'Local'
p19
sS'tseat2S'
p20
I180
sS'tseatCC'
p21
I16
sS'tprice1A'
p22
I100
sS'tprice3E'
p23
I100
sS't1A'
p24
I1
sS'tprice3A'
p25
I100
sS't3E'
p26
I1
sS't3A'
p27
I1
sS'tid'
p28
I101
sS'date'
p29
S'10/26/2014'
p30
sS'tfrom'
p31
S'Delhi'
p32
sS'tpriceEC'
p33
I100
sS'tCC'
p34
I1
sS'tseat1A'
p35
I18
sS'tseat3E'
p36
I18
sS'tpriceSL'
p37
I100
sS'tseat3A'
p38
I18
sS'tseatFC'
p39
I18
sb.(i__main__
train
p0
(dp1
S'tseatSL'
p2
I18
sS'ttotalseats'
p3
I319
sS'tpriceFC'
p4
I100
sS't2A'
p5
I1
sS'tprice2S'
p6
I100
sS'tFC'
p7
I1
sS'tto'
p8
S'Agra'
p9
sS'tEC'
p10
I1
sS'tprice2A'
p11
I100
sS't2S'
p12
I10
sS'date1'
p13
I1026
sS'tSL'
p14
I1
sS'tseat2A'
p15
I18
sS'tseatEC'
p16
I18
sS'tpriceCC'
p17
I100
sS'tname'
p18
S'Local'
p19
sS'tseat2S'
p20
I180
sS'tseatCC'
p21
I13
sS'tprice1A'
p22
I100
sS'tprice3E'
p23
I100
sS't1A'
p24
I1
sS'tprice3A'
p25
I100
sS't3E'
p26
I1
sS't3A'
p27
I1
sS'tid'
p28
I101
sS'date'
p29
S'10/26/2014'
p30
sS'tfrom'
p31
S'Delhi'
p32
sS'tpriceEC'
p33
I100
sS'tCC'
p34
I1
sS'tseat1A'
p35
I18
sS'tseat3E'
p36
I18
sS'tpriceSL'
p37
I100
sS'tseat3A'
p38
I18
sS'tseatFC'
p39
I18
sb.(i__main__
train
p0
(dp1
S'tseatSL'
p2
I40
sS'ttotalseats'
p3
I323
sS'tpriceFC'
p4
I105
sS't2A'
p5
I2
sS'tprice2S'
p6
I100
sS'tFC'
p7
I2
sS'tto'
p8
S'pune'
p9
sS'tEC'
p10
I2
sS'tprice2A'
p11
I100
sS't2S'
p12
I2
sS'date1'
p13
I1102
sS'tSL'
p14
I2
sS'tseat2A'
p15
I36
sS'tseatEC'
p16
I36
sS'tpriceCC'
p17
I100
sS'tname'
p18
S'Duronto'
p19
sS'tseat2S'
p20
I36
sS'tseatCC'
p21
I31
sS'tprice1A'
p22
I105
sS'tprice3E'
p23
I90
sS't1A'
p24
I2
sS'tprice3A'
p25
I95
sS't3E'
p26
I2
sS't3A'
p27
I2
sS'tid'
p28
I896
sS'date'
p29
S'11/02/2014'
p30
sS'tfrom'
p31
S'Howrah'
p32
sS'tpriceEC'
p33
I85
sS'tCC'
p34
I2
sS'tseat1A'
p35
I36
sS'tseat3E'
p36
I36
sS'tpriceSL'
p37
I90
sS'tseat3A'
p38
I36
sS'tseatFC'
p39
I36
sb.